target datalayout = "e-m:e-p270:32:32-p271:32:32-p272:64:64-i64:64-i128:128-f80:128-n8:16:32:64-S128"
target triple = "x86_64-unknown-linux-gnu"

%struct.riscv_csr_operations = type { ptr, ptr, ptr, ptr, ptr, ptr, ptr, i32 }
%struct.ArchCPU = type { %struct.CPUState, %struct.CPUArchState, ptr, ptr, %struct.RISCVCPUConfig, ptr, i32, ptr }
%struct.CPUState = type { %struct.DeviceState, ptr, i32, i32, ptr, i32, i8, i8, ptr, i8, i8, i8, i8, i8, i8, i8, i8, i32, i32, i32, i32, i64, i64, i64, [1 x %struct.__jmp_buf_tag], %struct.QemuMutex, %struct.anon, ptr, i32, ptr, ptr, ptr, ptr, i32, i32, %union.anon, %union.anon.0, %union.anon.1, ptr, ptr, i64, i32, ptr, ptr, ptr, i32, i64, i32, %struct.QemuLockCnt, [1 x i64], ptr, i32, i32, i32, i32, i32, ptr, i8, i8, i64, i8, i8, ptr, [8 x i8], [0 x i8], %struct.CPUNegativeOffsetState }
%struct.DeviceState = type { %struct.Object, ptr, ptr, i8, i8, i64, ptr, i32, i8, ptr, %struct.NamedGPIOListHead, %struct.NamedClockListHead, %struct.BusStateHead, i32, i32, i32, %struct.ResettableState, ptr, %struct.MemReentrancyGuard }
%struct.Object = type { ptr, ptr, ptr, i32, ptr }
%struct.NamedGPIOListHead = type { ptr }
%struct.NamedClockListHead = type { ptr }
%struct.BusStateHead = type { ptr }
%struct.ResettableState = type { i32, i8, i8 }
%struct.MemReentrancyGuard = type { i8 }
%struct.__jmp_buf_tag = type { [8 x i64], i32, %struct.__sigset_t }
%struct.__sigset_t = type { [16 x i64] }
%struct.QemuMutex = type { %union.pthread_mutex_t, i8 }
%union.pthread_mutex_t = type { %struct.__pthread_mutex_s }
%struct.__pthread_mutex_s = type { i32, i32, i32, i32, i32, i16, i16, %struct.__pthread_internal_list }
%struct.__pthread_internal_list = type { ptr, ptr }
%struct.anon = type { ptr, ptr }
%union.anon = type { %struct.QTailQLink }
%struct.QTailQLink = type { ptr, ptr }
%union.anon.0 = type { %struct.QTailQLink }
%union.anon.1 = type { %struct.QTailQLink }
%struct.QemuLockCnt = type { i32 }
%struct.CPUNegativeOffsetState = type { %struct.CPUTLB, %union.IcountDecr, i8, [11 x i8] }
%struct.CPUTLB = type { %struct.CPUTLBCommon, [16 x %struct.CPUTLBDesc], [16 x %struct.CPUTLBDescFast] }
%struct.CPUTLBCommon = type { %struct.QemuSpin, i16, i64, i64, i64 }
%struct.QemuSpin = type { i32 }
%struct.CPUTLBDesc = type { i64, i64, i64, i64, i64, i64, [8 x %union.CPUTLBEntry], [8 x %struct.CPUTLBEntryFull], ptr }
%union.CPUTLBEntry = type { %struct.anon.2 }
%struct.anon.2 = type { i64, i64, i64, i64 }
%struct.CPUTLBEntryFull = type { i64, i64, %struct.MemTxAttrs, i8, i8, [3 x i8], %union.anon.3 }
%struct.MemTxAttrs = type { i32 }
%union.anon.3 = type { %struct.anon.4 }
%struct.anon.4 = type { i8, i8, i8 }
%struct.CPUTLBDescFast = type { i64, ptr }
%union.IcountDecr = type { i32 }
%struct.CPUArchState = type { [32 x i64], [32 x i64], [512 x i64], i64, i64, i64, i64, i64, i8, i64, i64, i64, [32 x i64], i64, %struct.float_status, i64, i64, i64, i64, i64, i64, i32, i32, i32, i32, i32, i64, i64, i32, i64, i64, ptr, ptr, i8, i64, i64, [8 x i8] }
%struct.float_status = type { i16, i8, i8, i8, i8, i8, i8, i8, i8, i8, i8, i8 }
%struct.RISCVCPUConfig = type { i8, i8, i8, i8, i8, i8, i8, i8, i8, i8, i8, i8, i8, i8, i8, i8, i8, i8, i8, i8, i8, i8, i8, i8, i8, i8, i8, i8, i8, i8, i8, i8, i8, i8, i8, i8, i8, i8, i8, i8, i8, i8, i8, i8, i8, i8, i8, i8, i8, i8, i8, i8, i8, i8, i8, i8, i8, i8, i8, i8, i8, i8, i8, i8, i8, i8, i8, i8, i8, i8, i8, i8, i8, i8, i8, i8, i8, i8, i32, i64, i64, i8, i8, i8, i8, i8, i8, i8, i8, i8, i8, i8, i8, i32, ptr, ptr, ptr, ptr, i16, i16, i16, i16, i8, i8, i8, i8, i8 }

@.str.250 = private unnamed_addr constant [10 x i8] c"riscv-cpu\00", align 1
@.str.282 = private unnamed_addr constant [31 x i8] c"../qemu/target/riscv/cpu-qom.h\00", align 1
@__func__.RISCV_CPU = private unnamed_addr constant [10 x i8] c"RISCV_CPU\00", align 1
@.str.339 = private unnamed_addr constant [12 x i8] c" %s %016lx\0A\00", align 1
@.str.340 = private unnamed_addr constant [9 x i8] c"pc      \00", align 1
@.str.341 = private unnamed_addr constant [13 x i8] c" %-8s %016lx\00", align 1
@.str.342 = private unnamed_addr constant [2 x i8] c"\0A\00", align 1
@riscv_cpu_dump_state.dump_rvv_csrs = internal constant [7 x i32] [i32 8, i32 9, i32 10, i32 15, i32 3104, i32 3105, i32 3106], align 16
@.str.343 = private unnamed_addr constant [14 x i8] c" %-8s %016lx\0A\00", align 1
@csr_ops = external global [4096 x %struct.riscv_csr_operations], align 16
@.str.344 = private unnamed_addr constant [7 x i8] c" %-8s \00", align 1
@.str.345 = private unnamed_addr constant [5 x i8] c"%02x\00", align 1

; Function Attrs: nounwind sspstrong uwtable
define internal i32 @riscv_has_ext(ptr noundef %env, i64 noundef %ext) #0 {
entry:
  %env.addr = alloca ptr, align 8
  %ext.addr = alloca i64, align 8
  store ptr %env, ptr %env.addr, align 8
  store i64 %ext, ptr %ext.addr, align 8
  %0 = load ptr, ptr %env.addr, align 8
  %misa_ext = getelementptr inbounds %struct.CPUArchState, ptr %0, i32 0, i32 23
  %1 = load i32, ptr %misa_ext, align 8
  %conv = zext i32 %1 to i64
  %2 = load i64, ptr %ext.addr, align 8
  %and = and i64 %conv, %2
  %cmp = icmp ne i64 %and, 0
  %conv1 = zext i1 %cmp to i32
  ret i32 %conv1
}

; Function Attrs: nounwind sspstrong uwtable
define internal ptr @RISCV_CPU(ptr noundef %obj) #0 {
entry:
  %obj.addr = alloca ptr, align 8
  store ptr %obj, ptr %obj.addr, align 8
  %0 = load ptr, ptr %obj.addr, align 8
  %call = call ptr @object_dynamic_cast_assert(ptr noundef %0, ptr noundef @.str.250, ptr noundef @.str.282, i32 noundef 46, ptr noundef @__func__.RISCV_CPU)
  ret ptr %call
}

; Function Attrs: nounwind sspstrong uwtable
define internal void @riscv_cpu_dump_state(ptr noundef %cs, ptr noundef %f, i32 noundef %flags) #0 {
entry:
  %cs.addr = alloca ptr, align 8
  %f.addr = alloca ptr, align 8
  %flags.addr = alloca i32, align 4
  %cpu = alloca ptr, align 8
  %env = alloca ptr, align 8
  %i = alloca i32, align 4
  %j = alloca i32, align 4
  %p = alloca ptr, align 8
  %csrno = alloca i32, align 4
  %val = alloca i64, align 8
  %res = alloca i32, align 4
  %vlenb = alloca i16, align 2
  store ptr %cs, ptr %cs.addr, align 8
  store ptr %f, ptr %f.addr, align 8
  store i32 %flags, ptr %flags.addr, align 4
  %0 = load ptr, ptr %cs.addr, align 8
  %call = call ptr @RISCV_CPU(ptr noundef %0)
  store ptr %call, ptr %cpu, align 8
  %1 = load ptr, ptr %cpu, align 8
  %env1 = getelementptr inbounds %struct.ArchCPU, ptr %1, i32 0, i32 1
  store ptr %env1, ptr %env, align 8
  %2 = load ptr, ptr %f.addr, align 8
  %3 = load ptr, ptr %env, align 8
  %pc = getelementptr inbounds %struct.CPUArchState, ptr %3, i32 0, i32 9
  %4 = load i64, ptr %pc, align 16
  %call2 = call i32 (ptr, ptr, ...) @qemu_fprintf(ptr noundef %2, ptr noundef @.str.339, ptr noundef @.str.340, i64 noundef %4)
  store i32 0, ptr %i, align 4
  br label %for.cond

for.cond:                                         ; preds = %for.inc, %entry
  %5 = load i32, ptr %i, align 4
  %cmp = icmp slt i32 %5, 32
  br i1 %cmp, label %for.body, label %for.end

for.body:                                         ; preds = %for.cond
  %6 = load ptr, ptr %f.addr, align 8
  %7 = load i32, ptr %i, align 4
  %idxprom = sext i32 %7 to i64
  %arrayidx = getelementptr [32 x ptr], ptr @riscv_int_regnames, i64 0, i64 %idxprom
  %8 = load ptr, ptr %arrayidx, align 8
  %9 = load ptr, ptr %env, align 8
  %gpr = getelementptr inbounds %struct.CPUArchState, ptr %9, i32 0, i32 0
  %10 = load i32, ptr %i, align 4
  %idxprom3 = sext i32 %10 to i64
  %arrayidx4 = getelementptr [32 x i64], ptr %gpr, i64 0, i64 %idxprom3
  %11 = load i64, ptr %arrayidx4, align 8
  %call5 = call i32 (ptr, ptr, ...) @qemu_fprintf(ptr noundef %6, ptr noundef @.str.341, ptr noundef %8, i64 noundef %11)
  %12 = load i32, ptr %i, align 4
  %and = and i32 %12, 3
  %cmp6 = icmp eq i32 %and, 3
  br i1 %cmp6, label %if.then, label %if.end

if.then:                                          ; preds = %for.body
  %13 = load ptr, ptr %f.addr, align 8
  %call7 = call i32 (ptr, ptr, ...) @qemu_fprintf(ptr noundef %13, ptr noundef @.str.342)
  br label %if.end

if.end:                                           ; preds = %if.then, %for.body
  br label %for.inc

for.inc:                                          ; preds = %if.end
  %14 = load i32, ptr %i, align 4
  %inc = add i32 %14, 1
  store i32 %inc, ptr %i, align 4
  br label %for.cond, !llvm.loop !8

for.end:                                          ; preds = %for.cond
  %15 = load i32, ptr %flags.addr, align 4
  %and8 = and i32 %15, 131072
  %tobool = icmp ne i32 %and8, 0
  br i1 %tobool, label %if.then9, label %if.end26

if.then9:                                         ; preds = %for.end
  store i32 0, ptr %i, align 4
  br label %for.cond10

for.cond10:                                       ; preds = %for.inc23, %if.then9
  %16 = load i32, ptr %i, align 4
  %cmp11 = icmp slt i32 %16, 32
  br i1 %cmp11, label %for.body12, label %for.end25

for.body12:                                       ; preds = %for.cond10
  %17 = load ptr, ptr %f.addr, align 8
  %18 = load i32, ptr %i, align 4
  %idxprom13 = sext i32 %18 to i64
  %arrayidx14 = getelementptr [32 x ptr], ptr @riscv_fpr_regnames, i64 0, i64 %idxprom13
  %19 = load ptr, ptr %arrayidx14, align 8
  %20 = load ptr, ptr %env, align 8
  %fpr = getelementptr inbounds %struct.CPUArchState, ptr %20, i32 0, i32 12
  %21 = load i32, ptr %i, align 4
  %idxprom15 = sext i32 %21 to i64
  %arrayidx16 = getelementptr [32 x i64], ptr %fpr, i64 0, i64 %idxprom15
  %22 = load i64, ptr %arrayidx16, align 8
  %call17 = call i32 (ptr, ptr, ...) @qemu_fprintf(ptr noundef %17, ptr noundef @.str.341, ptr noundef %19, i64 noundef %22)
  %23 = load i32, ptr %i, align 4
  %and18 = and i32 %23, 3
  %cmp19 = icmp eq i32 %and18, 3
  br i1 %cmp19, label %if.then20, label %if.end22

if.then20:                                        ; preds = %for.body12
  %24 = load ptr, ptr %f.addr, align 8
  %call21 = call i32 (ptr, ptr, ...) @qemu_fprintf(ptr noundef %24, ptr noundef @.str.342)
  br label %if.end22

if.end22:                                         ; preds = %if.then20, %for.body12
  br label %for.inc23

for.inc23:                                        ; preds = %if.end22
  %25 = load i32, ptr %i, align 4
  %inc24 = add i32 %25, 1
  store i32 %inc24, ptr %i, align 4
  br label %for.cond10, !llvm.loop !9

for.end25:                                        ; preds = %for.cond10
  br label %if.end26

if.end26:                                         ; preds = %for.end25, %for.end
  %26 = load ptr, ptr %env, align 8
  %call27 = call i32 @riscv_has_ext(ptr noundef %26, i64 noundef 2097152)
  %tobool28 = icmp ne i32 %call27, 0
  br i1 %tobool28, label %land.lhs.true, label %if.end74

land.lhs.true:                                    ; preds = %if.end26
  %27 = load i32, ptr %flags.addr, align 4
  %and29 = and i32 %27, 524288
  %tobool30 = icmp ne i32 %and29, 0
  br i1 %tobool30, label %if.then31, label %if.end74

if.then31:                                        ; preds = %land.lhs.true
  store i32 0, ptr %i, align 4
  br label %for.cond32

for.cond32:                                       ; preds = %for.inc46, %if.then31
  %28 = load i32, ptr %i, align 4
  %conv = sext i32 %28 to i64
  %cmp33 = icmp ult i64 %conv, 7
  br i1 %cmp33, label %for.body35, label %for.end48

for.body35:                                       ; preds = %for.cond32
  %29 = load i32, ptr %i, align 4
  %idxprom36 = sext i32 %29 to i64
  %arrayidx37 = getelementptr [7 x i32], ptr @riscv_cpu_dump_state.dump_rvv_csrs, i64 0, i64 %idxprom36
  %30 = load i32, ptr %arrayidx37, align 4
  store i32 %30, ptr %csrno, align 4
  store i64 0, ptr %val, align 8
  %31 = load ptr, ptr %env, align 8
  %32 = load i32, ptr %csrno, align 4
  %call38 = call i32 @riscv_csrrw_debug(ptr noundef %31, i32 noundef %32, ptr noundef %val, i64 noundef 0, i64 noundef 0)
  store i32 %call38, ptr %res, align 4
  %33 = load i32, ptr %res, align 4
  %cmp39 = icmp eq i32 %33, -1
  br i1 %cmp39, label %if.then41, label %if.end45

if.then41:                                        ; preds = %for.body35
  %34 = load ptr, ptr %f.addr, align 8
  %35 = load i32, ptr %csrno, align 4
  %idxprom42 = sext i32 %35 to i64
  %arrayidx43 = getelementptr [4096 x %struct.riscv_csr_operations], ptr @csr_ops, i64 0, i64 %idxprom42
  %name = getelementptr inbounds %struct.riscv_csr_operations, ptr %arrayidx43, i32 0, i32 0
  %36 = load ptr, ptr %name, align 16
  %37 = load i64, ptr %val, align 8
  %call44 = call i32 (ptr, ptr, ...) @qemu_fprintf(ptr noundef %34, ptr noundef @.str.343, ptr noundef %36, i64 noundef %37)
  br label %if.end45

if.end45:                                         ; preds = %if.then41, %for.body35
  br label %for.inc46

for.inc46:                                        ; preds = %if.end45
  %38 = load i32, ptr %i, align 4
  %inc47 = add i32 %38, 1
  store i32 %inc47, ptr %i, align 4
  br label %for.cond32, !llvm.loop !10

for.end48:                                        ; preds = %for.cond32
  %39 = load ptr, ptr %cpu, align 8
  %cfg = getelementptr inbounds %struct.ArchCPU, ptr %39, i32 0, i32 4
  %vlen = getelementptr inbounds %struct.RISCVCPUConfig, ptr %cfg, i32 0, i32 98
  %40 = load i16, ptr %vlen, align 8
  %conv49 = zext i16 %40 to i32
  %shr = ashr i32 %conv49, 3
  %conv50 = trunc i32 %shr to i16
  store i16 %conv50, ptr %vlenb, align 2
  store i32 0, ptr %i, align 4
  br label %for.cond51

for.cond51:                                       ; preds = %for.inc71, %for.end48
  %41 = load i32, ptr %i, align 4
  %cmp52 = icmp slt i32 %41, 32
  br i1 %cmp52, label %for.body54, label %for.end73

for.body54:                                       ; preds = %for.cond51
  %42 = load ptr, ptr %f.addr, align 8
  %43 = load i32, ptr %i, align 4
  %idxprom55 = sext i32 %43 to i64
  %arrayidx56 = getelementptr [32 x ptr], ptr @riscv_rvv_regnames, i64 0, i64 %idxprom55
  %44 = load ptr, ptr %arrayidx56, align 8
  %call57 = call i32 (ptr, ptr, ...) @qemu_fprintf(ptr noundef %42, ptr noundef @.str.344, ptr noundef %44)
  %45 = load ptr, ptr %env, align 8
  %vreg = getelementptr inbounds %struct.CPUArchState, ptr %45, i32 0, i32 2
  %arraydecay = getelementptr inbounds [512 x i64], ptr %vreg, i64 0, i64 0
  store ptr %arraydecay, ptr %p, align 8
  %46 = load i16, ptr %vlenb, align 2
  %conv58 = zext i16 %46 to i32
  %sub = sub i32 %conv58, 1
  store i32 %sub, ptr %j, align 4
  br label %for.cond59

for.cond59:                                       ; preds = %for.inc68, %for.body54
  %47 = load i32, ptr %j, align 4
  %cmp60 = icmp sge i32 %47, 0
  br i1 %cmp60, label %for.body62, label %for.end69

for.body62:                                       ; preds = %for.cond59
  %48 = load ptr, ptr %f.addr, align 8
  %49 = load ptr, ptr %p, align 8
  %50 = load i32, ptr %i, align 4
  %51 = load i16, ptr %vlenb, align 2
  %conv63 = zext i16 %51 to i32
  %mul = mul i32 %50, %conv63
  %idx.ext = sext i32 %mul to i64
  %add.ptr = getelementptr i8, ptr %49, i64 %idx.ext
  %52 = load i32, ptr %j, align 4
  %idx.ext64 = sext i32 %52 to i64
  %add.ptr65 = getelementptr i8, ptr %add.ptr, i64 %idx.ext64
  %53 = load i8, ptr %add.ptr65, align 1
  %conv66 = zext i8 %53 to i32
  %call67 = call i32 (ptr, ptr, ...) @qemu_fprintf(ptr noundef %48, ptr noundef @.str.345, i32 noundef %conv66)
  br label %for.inc68

for.inc68:                                        ; preds = %for.body62
  %54 = load i32, ptr %j, align 4
  %dec = add i32 %54, -1
  store i32 %dec, ptr %j, align 4
  br label %for.cond59, !llvm.loop !11

for.end69:                                        ; preds = %for.cond59
  %55 = load ptr, ptr %f.addr, align 8
  %call70 = call i32 (ptr, ptr, ...) @qemu_fprintf(ptr noundef %55, ptr noundef @.str.342)
  br label %for.inc71

for.inc71:                                        ; preds = %for.end69
  %56 = load i32, ptr %i, align 4
  %inc72 = add i32 %56, 1
  store i32 %inc72, ptr %i, align 4
  br label %for.cond51, !llvm.loop !12

for.end73:                                        ; preds = %for.cond51
  br label %if.end74

if.end74:                                         ; preds = %for.end73, %land.lhs.true, %if.end26
  ret void
}