; Function Attrs: nounwind sspstrong uwtable
define internal void @riscv_cpu_dump_state(ptr noundef %cs, ptr noundef %f, i32 noundef %flags) #3 {
entry:
  %val = alloca i64, align 8
  %call.i = tail call ptr @object_dynamic_cast_assert(ptr noundef %cs, ptr noundef nonnull @.str.250, ptr noundef nonnull @.str.282, i32 noundef 46, ptr noundef nonnull @__func__.RISCV_CPU) #14
  %env1 = getelementptr inbounds nuw i8, ptr %call.i, i64 10176
  %pc = getelementptr inbounds nuw i8, ptr %call.i, i64 14832
  %0 = load i64, ptr %pc, align 16
  %call2 = tail call i32 (ptr, ptr, ...) @qemu_fprintf(ptr noundef %f, ptr noundef nonnull @.str.339, ptr noundef nonnull @.str.340, i64 noundef %0) #14
  br label %for.body

for.body:                                         ; preds = %entry, %for.inc
  %indvars.iv = phi i64 [ 0, %entry ], [ %indvars.iv.next, %for.inc ]
  %arrayidx = getelementptr [32 x ptr], ptr @riscv_int_regnames, i64 0, i64 %indvars.iv
  %1 = load ptr, ptr %arrayidx, align 8
  %arrayidx4 = getelementptr [32 x i64], ptr %env1, i64 0, i64 %indvars.iv
  %2 = load i64, ptr %arrayidx4, align 8
  %call5 = tail call i32 (ptr, ptr, ...) @qemu_fprintf(ptr noundef %f, ptr noundef nonnull @.str.341, ptr noundef %1, i64 noundef %2) #14
  %and63 = and i64 %indvars.iv, 3
  %cmp6 = icmp eq i64 %and63, 3
  br i1 %cmp6, label %if.then, label %for.inc

if.then:                                          ; preds = %for.body
  %call7 = tail call i32 (ptr, ptr, ...) @qemu_fprintf(ptr noundef %f, ptr noundef nonnull @.str.342) #14
  br label %for.inc

for.inc:                                          ; preds = %for.body, %if.then
  %indvars.iv.next = add nuw nsw i64 %indvars.iv, 1
  %exitcond.not = icmp eq i64 %indvars.iv.next, 32
  br i1 %exitcond.not, label %for.end, label %for.body, !llvm.loop !7

for.end:                                          ; preds = %for.inc
  %and8 = and i32 %flags, 131072
  %tobool.not = icmp eq i32 %and8, 0
  br i1 %tobool.not, label %if.end26, label %for.cond10.preheader

for.cond10.preheader:                             ; preds = %for.end
  %fpr = getelementptr inbounds nuw i8, ptr %call.i, i64 14856
  br label %for.body12

for.body12:                                       ; preds = %for.cond10.preheader, %for.inc23
  %indvars.iv44 = phi i64 [ 0, %for.cond10.preheader ], [ %indvars.iv.next45, %for.inc23 ]
  %arrayidx14 = getelementptr [32 x ptr], ptr @riscv_fpr_regnames, i64 0, i64 %indvars.iv44
  %3 = load ptr, ptr %arrayidx14, align 8
  %arrayidx16 = getelementptr [32 x i64], ptr %fpr, i64 0, i64 %indvars.iv44
  %4 = load i64, ptr %arrayidx16, align 8
  %call17 = tail call i32 (ptr, ptr, ...) @qemu_fprintf(ptr noundef %f, ptr noundef nonnull @.str.341, ptr noundef %3, i64 noundef %4) #14
  %and1864 = and i64 %indvars.iv44, 3
  %cmp19 = icmp eq i64 %and1864, 3
  br i1 %cmp19, label %if.then20, label %for.inc23

if.then20:                                        ; preds = %for.body12
  %call21 = tail call i32 (ptr, ptr, ...) @qemu_fprintf(ptr noundef %f, ptr noundef nonnull @.str.342) #14
  br label %for.inc23

for.inc23:                                        ; preds = %for.body12, %if.then20
  %indvars.iv.next45 = add nuw nsw i64 %indvars.iv44, 1
  %exitcond47.not = icmp eq i64 %indvars.iv.next45, 32
  br i1 %exitcond47.not, label %if.end26, label %for.body12, !llvm.loop !8

if.end26:                                         ; preds = %for.inc23, %for.end
  %5 = getelementptr i8, ptr %call.i, i64 15192
  %env1.val = load i32, ptr %5, align 8
  %6 = and i32 %env1.val, 2097152
  %tobool28.not = icmp eq i32 %6, 0
  %and29 = and i32 %flags, 524288
  %tobool30.not = icmp eq i32 %and29, 0
  %or.cond = or i1 %tobool30.not, %tobool28.not
  br i1 %or.cond, label %if.end74, label %for.body35

for.body35:                                       ; preds = %if.end26, %for.inc46
  %indvars.iv48 = phi i64 [ %indvars.iv.next49, %for.inc46 ], [ 0, %if.end26 ]
  %arrayidx37 = getelementptr [7 x i32], ptr @riscv_cpu_dump_state.dump_rvv_csrs, i64 0, i64 %indvars.iv48
  %7 = load i32, ptr %arrayidx37, align 4
  store i64 0, ptr %val, align 8
  %call38 = call i32 @riscv_csrrw_debug(ptr noundef nonnull %env1, i32 noundef %7, ptr noundef nonnull %val, i64 noundef 0, i64 noundef 0) #14
  %cmp39 = icmp eq i32 %call38, -1
  br i1 %cmp39, label %if.then41, label %for.inc46

if.then41:                                        ; preds = %for.body35
  %idxprom42 = sext i32 %7 to i64
  %arrayidx43 = getelementptr [4096 x %struct.riscv_csr_operations], ptr @csr_ops, i64 0, i64 %idxprom42
  %8 = load ptr, ptr %arrayidx43, align 16
  %9 = load i64, ptr %val, align 8
  %call44 = call i32 (ptr, ptr, ...) @qemu_fprintf(ptr noundef %f, ptr noundef nonnull @.str.343, ptr noundef %8, i64 noundef %9) #14
  br label %for.inc46

for.inc46:                                        ; preds = %for.body35, %if.then41
  %indvars.iv.next49 = add nuw nsw i64 %indvars.iv48, 1
  %exitcond51.not = icmp eq i64 %indvars.iv.next49, 7
  br i1 %exitcond51.not, label %for.end48, label %for.body35, !llvm.loop !9

for.end48:                                        ; preds = %for.inc46
  %vlen = getelementptr inbounds nuw i8, ptr %call.i, i64 15464
  %10 = load i16, ptr %vlen, align 8
  %.fr = freeze i16 %10
  %vreg = getelementptr inbounds nuw i8, ptr %call.i, i64 10688
  %cmp6039 = icmp ugt i16 %.fr, 7
  br i1 %cmp6039, label %for.body54.us.preheader, label %for.body54

for.body54.us.preheader:                          ; preds = %for.end48
  %11 = lshr i16 %.fr, 3
  %12 = lshr i16 %.fr, 3
  %13 = zext nneg i16 %12 to i64
  %14 = zext nneg i16 %11 to i64
  br label %for.body54.us

for.body54.us:                                    ; preds = %for.body54.us.preheader, %for.cond59.for.end69_crit_edge.us
  %indvars.iv58 = phi i64 [ 0, %for.body54.us.preheader ], [ %indvars.iv.next59, %for.cond59.for.end69_crit_edge.us ]
  %arrayidx56.us = getelementptr [32 x ptr], ptr @riscv_rvv_regnames, i64 0, i64 %indvars.iv58
  %15 = load ptr, ptr %arrayidx56.us, align 8
  %call57.us = call i32 (ptr, ptr, ...) @qemu_fprintf(ptr noundef %f, ptr noundef nonnull @.str.344, ptr noundef %15) #14
  %16 = mul nuw nsw i64 %indvars.iv58, %14
  %add.ptr.us = getelementptr i8, ptr %vreg, i64 %16
  br label %for.body62.us

for.body62.us:                                    ; preds = %for.body54.us, %for.body62.us
  %indvars.iv56 = phi i64 [ %13, %for.body54.us ], [ %indvars.iv.next57, %for.body62.us ]
  %indvars.iv.next57 = add nsw i64 %indvars.iv56, -1
  %add.ptr65.us = getelementptr i8, ptr %add.ptr.us, i64 %indvars.iv.next57
  %17 = load i8, ptr %add.ptr65.us, align 1
  %conv66.us = zext i8 %17 to i32
  %call67.us = call i32 (ptr, ptr, ...) @qemu_fprintf(ptr noundef %f, ptr noundef nonnull @.str.345, i32 noundef %conv66.us) #14
  %cmp60.us = icmp sgt i64 %indvars.iv56, 1
  br i1 %cmp60.us, label %for.body62.us, label %for.cond59.for.end69_crit_edge.us, !llvm.loop !10

for.cond59.for.end69_crit_edge.us:                ; preds = %for.body62.us
  %call70.us = call i32 (ptr, ptr, ...) @qemu_fprintf(ptr noundef %f, ptr noundef nonnull @.str.342) #14
  %indvars.iv.next59 = add nuw nsw i64 %indvars.iv58, 1
  %exitcond62.not = icmp eq i64 %indvars.iv.next59, 32
  br i1 %exitcond62.not, label %if.end74, label %for.body54.us, !llvm.loop !11

for.body54:                                       ; preds = %for.end48, %for.body54
  %indvars.iv52 = phi i64 [ %indvars.iv.next53, %for.body54 ], [ 0, %for.end48 ]
  %arrayidx56 = getelementptr [32 x ptr], ptr @riscv_rvv_regnames, i64 0, i64 %indvars.iv52
  %18 = load ptr, ptr %arrayidx56, align 8
  %call57 = call i32 (ptr, ptr, ...) @qemu_fprintf(ptr noundef %f, ptr noundef nonnull @.str.344, ptr noundef %18) #14
  %call70 = call i32 (ptr, ptr, ...) @qemu_fprintf(ptr noundef %f, ptr noundef nonnull @.str.342) #14
  %indvars.iv.next53 = add nuw nsw i64 %indvars.iv52, 1
  %exitcond55.not = icmp eq i64 %indvars.iv.next53, 32
  br i1 %exitcond55.not, label %if.end74, label %for.body54, !llvm.loop !11

if.end74:                                         ; preds = %for.body54, %for.cond59.for.end69_crit_edge.us, %if.end26
  ret void
}